; Function Attrs: mustprogress nofree norecurse nosync nounwind willreturn memory(argmem: write) uwtable
define dso_local range(i64 -1, 1) i64 @ZSTD_CCtxParams_init(ptr noundef writeonly %0, i32 noundef %1) local_unnamed_addr #6 {
  %.not = icmp eq ptr %0, null
  br i1 %.not, label %6, label %3

3:                                                ; preds = %2
  tail call void @llvm.memset.p0.i64(ptr noundef nonnull align 8 dereferenceable(208) %0, i8 0, i64 208, i1 false)
  %4 = getelementptr inbounds nuw i8, ptr %0, i64 44
  store i32 %1, ptr %4, align 4
  %5 = getelementptr inbounds nuw i8, ptr %0, i64 32
  store i32 1, ptr %5, align 8
  br label %6

6:                                                ; preds = %2, %3
  %.0 = phi i64 [ 0, %3 ], [ -1, %2 ]
  ret i64 %.0
}